target datalayout = "e-m:e-p270:32:32-p271:32:32-p272:64:64-i64:64-i128:128-f80:128-n8:16:32:64-S128"
target triple = "x86_64-unknown-linux-gnu"

; Function Attrs: nounwind uwtable
define dso_local ptr @unquoteCString(ptr noundef %str) #0 {
entry:
  %str.addr = alloca ptr, align 8
  %count = alloca i32, align 4
  %unquoted = alloca ptr, align 8
  %res = alloca ptr, align 8
  store ptr %str, ptr %str.addr, align 8
  %0 = load ptr, ptr %str.addr, align 8
  %call = call ptr @hi_sdssplitargs(ptr noundef %0, ptr noundef %count)
  store ptr %call, ptr %unquoted, align 8
  store ptr null, ptr %res, align 8
  %1 = load ptr, ptr %unquoted, align 8
  %tobool = icmp ne ptr %1, null
  br i1 %tobool, label %land.lhs.true, label %if.end

land.lhs.true:                                    ; preds = %entry
  %2 = load i32, ptr %count, align 4
  %cmp = icmp eq i32 %2, 1
  br i1 %cmp, label %if.then, label %if.end

if.then:                                          ; preds = %land.lhs.true
  %3 = load ptr, ptr %unquoted, align 8
  %arrayidx = getelementptr inbounds ptr, ptr %3, i64 0
  %4 = load ptr, ptr %arrayidx, align 8
  store ptr %4, ptr %res, align 8
  %5 = load ptr, ptr %unquoted, align 8
  %arrayidx1 = getelementptr inbounds ptr, ptr %5, i64 0
  store ptr null, ptr %arrayidx1, align 8
  br label %if.end

if.end:                                           ; preds = %if.then, %land.lhs.true, %entry
  %6 = load ptr, ptr %unquoted, align 8
  %tobool2 = icmp ne ptr %6, null
  br i1 %tobool2, label %if.then3, label %if.end4

if.then3:                                         ; preds = %if.end
  %7 = load ptr, ptr %unquoted, align 8
  %8 = load i32, ptr %count, align 4
  call void @hi_sdsfreesplitres(ptr noundef %7, i32 noundef %8)
  br label %if.end4

if.end4:                                          ; preds = %if.then3, %if.end
  %9 = load ptr, ptr %res, align 8
  ret ptr %9
}

; Function Attrs: nounwind uwtable
define dso_local ptr @getSdsArrayFromArgv(i32 noundef %argc, ptr noundef %argv, i32 noundef %quoted) #0 {
entry:
  %retval = alloca ptr, align 8
  %argc.addr = alloca i32, align 4
  %argv.addr = alloca ptr, align 8
  %quoted.addr = alloca i32, align 4
  %res = alloca ptr, align 8
  %j = alloca i32, align 4
  %unquoted = alloca ptr, align 8
  store i32 %argc, ptr %argc.addr, align 4
  store ptr %argv, ptr %argv.addr, align 8
  store i32 %quoted, ptr %quoted.addr, align 4
  %0 = load i32, ptr %argc.addr, align 4
  %conv = sext i32 %0 to i64
  %mul = mul i64 8, %conv
  %call = call ptr @hi_sds_malloc(i64 noundef %mul)
  store ptr %call, ptr %res, align 8
  store i32 0, ptr %j, align 4
  br label %for.cond

for.cond:                                         ; preds = %for.inc, %entry
  %1 = load i32, ptr %j, align 4
  %2 = load i32, ptr %argc.addr, align 4
  %cmp = icmp slt i32 %1, %2
  br i1 %cmp, label %for.body, label %for.end

for.body:                                         ; preds = %for.cond
  %3 = load i32, ptr %quoted.addr, align 4
  %tobool = icmp ne i32 %3, 0
  br i1 %tobool, label %if.then, label %if.else

if.then:                                          ; preds = %for.body
  %4 = load ptr, ptr %argv.addr, align 8
  %5 = load i32, ptr %j, align 4
  %idxprom = sext i32 %5 to i64
  %arrayidx = getelementptr inbounds ptr, ptr %4, i64 %idxprom
  %6 = load ptr, ptr %arrayidx, align 8
  %call2 = call ptr @unquoteCString(ptr noundef %6)
  store ptr %call2, ptr %unquoted, align 8
  %7 = load ptr, ptr %unquoted, align 8
  %tobool3 = icmp ne ptr %7, null
  br i1 %tobool3, label %if.end, label %if.then4

if.then4:                                         ; preds = %if.then
  br label %while.cond

while.cond:                                       ; preds = %while.body, %if.then4
  %8 = load i32, ptr %j, align 4
  %dec = add nsw i32 %8, -1
  store i32 %dec, ptr %j, align 4
  %cmp5 = icmp sge i32 %dec, 0
  br i1 %cmp5, label %while.body, label %while.end

while.body:                                       ; preds = %while.cond
  %9 = load ptr, ptr %res, align 8
  %10 = load i32, ptr %j, align 4
  %idxprom7 = sext i32 %10 to i64
  %arrayidx8 = getelementptr inbounds ptr, ptr %9, i64 %idxprom7
  %11 = load ptr, ptr %arrayidx8, align 8
  call void @hi_sdsfree(ptr noundef %11)
  br label %while.cond, !llvm.loop !5

while.end:                                        ; preds = %while.cond
  %12 = load ptr, ptr %res, align 8
  call void @hi_sds_free(ptr noundef %12)
  store ptr null, ptr %retval, align 8
  br label %return

if.end:                                           ; preds = %if.then
  %13 = load ptr, ptr %unquoted, align 8
  %14 = load ptr, ptr %res, align 8
  %15 = load i32, ptr %j, align 4
  %idxprom9 = sext i32 %15 to i64
  %arrayidx10 = getelementptr inbounds ptr, ptr %14, i64 %idxprom9
  store ptr %13, ptr %arrayidx10, align 8
  br label %if.end16

if.else:                                          ; preds = %for.body
  %16 = load ptr, ptr %argv.addr, align 8
  %17 = load i32, ptr %j, align 4
  %idxprom11 = sext i32 %17 to i64
  %arrayidx12 = getelementptr inbounds ptr, ptr %16, i64 %idxprom11
  %18 = load ptr, ptr %arrayidx12, align 8
  %call13 = call ptr @hi_sdsnew(ptr noundef %18)
  %19 = load ptr, ptr %res, align 8
  %20 = load i32, ptr %j, align 4
  %idxprom14 = sext i32 %20 to i64
  %arrayidx15 = getelementptr inbounds ptr, ptr %19, i64 %idxprom14
  store ptr %call13, ptr %arrayidx15, align 8
  br label %if.end16

if.end16:                                         ; preds = %if.else, %if.end
  br label %for.inc

for.inc:                                          ; preds = %if.end16
  %21 = load i32, ptr %j, align 4
  %inc = add nsw i32 %21, 1
  store i32 %inc, ptr %j, align 4
  br label %for.cond, !llvm.loop !7

for.end:                                          ; preds = %for.cond
  %22 = load ptr, ptr %res, align 8
  store ptr %22, ptr %retval, align 8
  br label %return

return:                                           ; preds = %for.end, %while.end
  %23 = load ptr, ptr %retval, align 8
  ret ptr %23
}