; Function Attrs: nounwind uwtable
define dso_local ptr @getSdsArrayFromArgv(i32 noundef %argc, ptr nocapture noundef readonly %argv, i32 noundef %quoted) local_unnamed_addr #1 {
entry:
  %count.i = alloca i32, align 4
  %conv = sext i32 %argc to i64
  %mul = shl nsw i64 %conv, 3
  %call = tail call ptr @hi_sds_malloc(i64 noundef %mul) #11
  %cmp16 = icmp sgt i32 %argc, 0
  br i1 %cmp16, label %for.body.lr.ph, label %return

for.body.lr.ph:                                   ; preds = %entry
  %tobool.not = icmp eq i32 %quoted, 0
  %wide.trip.count31 = zext nneg i32 %argc to i64
  br i1 %tobool.not, label %for.body.us, label %for.body

for.body.us:                                      ; preds = %for.body.lr.ph, %for.body.us
  %indvars.iv27 = phi i64 [ %indvars.iv.next28, %for.body.us ], [ 0, %for.body.lr.ph ]
  %arrayidx12.us = getelementptr inbounds ptr, ptr %argv, i64 %indvars.iv27
  %0 = load ptr, ptr %arrayidx12.us, align 8
  %call13.us = tail call ptr @hi_sdsnew(ptr noundef %0) #11
  %arrayidx15.us = getelementptr inbounds ptr, ptr %call, i64 %indvars.iv27
  store ptr %call13.us, ptr %arrayidx15.us, align 8
  %indvars.iv.next28 = add nuw nsw i64 %indvars.iv27, 1
  %exitcond32.not = icmp eq i64 %indvars.iv.next28, %wide.trip.count31
  br i1 %exitcond32.not, label %return, label %for.body.us, !llvm.loop !5

for.body:                                         ; preds = %for.body.lr.ph, %if.end
  %indvars.iv = phi i64 [ %indvars.iv.next, %if.end ], [ 0, %for.body.lr.ph ]
  %arrayidx = getelementptr inbounds ptr, ptr %argv, i64 %indvars.iv
  %1 = load ptr, ptr %arrayidx, align 8
  call void @llvm.lifetime.start.p0(i64 4, ptr nonnull %count.i)
  %call.i = call ptr @hi_sdssplitargs(ptr noundef %1, ptr noundef nonnull %count.i) #11
  %tobool.i = icmp ne ptr %call.i, null
  %2 = load i32, ptr %count.i, align 4
  %cmp.i = icmp eq i32 %2, 1
  %or.cond.i = select i1 %tobool.i, i1 %cmp.i, i1 false
  br i1 %or.cond.i, label %unquoteCString.exit, label %if.end.i

if.end.i:                                         ; preds = %for.body
  br i1 %tobool.i, label %unquoteCString.exit.thread35, label %unquoteCString.exit.thread

unquoteCString.exit.thread35:                     ; preds = %if.end.i
  call void @hi_sdsfreesplitres(ptr noundef nonnull %call.i, i32 noundef %2) #11
  call void @llvm.lifetime.end.p0(i64 4, ptr nonnull %count.i)
  br label %while.cond.preheader

unquoteCString.exit.thread:                       ; preds = %if.end.i
  call void @llvm.lifetime.end.p0(i64 4, ptr nonnull %count.i)
  br label %while.cond.preheader

unquoteCString.exit:                              ; preds = %for.body
  %3 = load ptr, ptr %call.i, align 8
  store ptr null, ptr %call.i, align 8
  call void @hi_sdsfreesplitres(ptr noundef nonnull %call.i, i32 noundef %2) #11
  call void @llvm.lifetime.end.p0(i64 4, ptr nonnull %count.i)
  %tobool3.not = icmp eq ptr %3, null
  br i1 %tobool3.not, label %while.cond.preheader, label %if.end

while.cond.preheader:                             ; preds = %unquoteCString.exit, %unquoteCString.exit.thread35, %unquoteCString.exit.thread
  %4 = and i64 %indvars.iv, 4294967295
  %cmp518.not = icmp eq i64 %4, 0
  br i1 %cmp518.not, label %while.end, label %while.body

while.body:                                       ; preds = %while.cond.preheader, %while.body
  %indvars.iv24 = phi i64 [ %indvars.iv.next25, %while.body ], [ %indvars.iv, %while.cond.preheader ]
  %indvars.iv.next25 = add nsw i64 %indvars.iv24, -1
  %idxprom7 = and i64 %indvars.iv.next25, 4294967295
  %arrayidx8 = getelementptr inbounds ptr, ptr %call, i64 %idxprom7
  %5 = load ptr, ptr %arrayidx8, align 8
  call void @hi_sdsfree(ptr noundef %5) #11
  %6 = icmp sgt i64 %indvars.iv24, 1
  br i1 %6, label %while.body, label %while.end, !llvm.loop !7

while.end:                                        ; preds = %while.body, %while.cond.preheader
  call void @hi_sds_free(ptr noundef %call) #11
  br label %return

if.end:                                           ; preds = %unquoteCString.exit
  %arrayidx10 = getelementptr inbounds ptr, ptr %call, i64 %indvars.iv
  store ptr %3, ptr %arrayidx10, align 8
  %indvars.iv.next = add nuw nsw i64 %indvars.iv, 1
  %exitcond.not = icmp eq i64 %indvars.iv.next, %wide.trip.count31
  br i1 %exitcond.not, label %return, label %for.body, !llvm.loop !5

return:                                           ; preds = %if.end, %for.body.us, %entry, %while.end
  %retval.0 = phi ptr [ null, %while.end ], [ %call, %entry ], [ %call, %for.body.us ], [ %call, %if.end ]
  ret ptr %retval.0
}